; ModuleID = '56/1167.c'
source_filename = "56/1167.c"
target datalayout = "e-m:e-p270:32:32-p271:32:32-p272:64:64-i64:64-f80:128-n8:16:32:64-S128"
target triple = "x86_64-pc-linux-gnu"

@.str = private unnamed_addr constant [3 x i8] c"%d\00", align 1

; Function Attrs: noinline nounwind uwtable
define dso_local i32 @main() #0 {
  %1 = alloca i32, align 4
  %2 = alloca i32, align 4
  %3 = alloca i32, align 4
  %4 = alloca i32, align 4
  %5 = alloca i32, align 4
  store i32 0, i32* %1, align 4
  %6 = call i32 (i8*, ...) @__isoc99_scanf(i8* getelementptr inbounds ([3 x i8], [3 x i8]* @.str, i64 0, i64 0), i32* %2)
  store i32 0, i32* %3, align 4
  store i32 0, i32* %4, align 4
  store i32 0, i32* %5, align 4
  br label %7

7:                                                ; preds = %33, %0
  %8 = load i32, i32* %5, align 4
  %9 = icmp slt i32 %8, 5
  br i1 %9, label %10, label %36

10:                                               ; preds = %7
  %11 = load i32, i32* %2, align 4
  %12 = sdiv i32 %11, 10
  %13 = icmp ne i32 %12, 0
  br i1 %13, label %14, label %22

14:                                               ; preds = %10
  %15 = load i32, i32* %2, align 4
  %16 = srem i32 %15, 10
  store i32 %16, i32* %3, align 4
  %17 = load i32, i32* %4, align 4
  %18 = mul nsw i32 10, %17
  %19 = load i32, i32* %3, align 4
  %20 = mul nsw i32 10, %19
  %21 = add nsw i32 %18, %20
  store i32 %21, i32* %4, align 4
  br label %22

22:                                               ; preds = %14, %10
  %23 = load i32, i32* %2, align 4
  %24 = sdiv i32 %23, 10
  %25 = icmp eq i32 %24, 0
  br i1 %25, label %26, label %30

26:                                               ; preds = %22
  %27 = load i32, i32* %2, align 4
  %28 = load i32, i32* %4, align 4
  %29 = add nsw i32 %28, %27
  store i32 %29, i32* %4, align 4
  br label %30

30:                                               ; preds = %26, %22
  %31 = load i32, i32* %2, align 4
  %32 = sdiv i32 %31, 10
  store i32 %32, i32* %2, align 4
  br label %33

33:                                               ; preds = %30
  %34 = load i32, i32* %5, align 4
  %35 = add nsw i32 %34, 1
  store i32 %35, i32* %5, align 4
  br label %7

36:                                               ; preds = %7
  %37 = load i32, i32* %4, align 4
  %38 = call i32 (i8*, ...) @printf(i8* getelementptr inbounds ([3 x i8], [3 x i8]* @.str, i64 0, i64 0), i32 %37)
  ret i32 0
}

declare dso_local i32 @__isoc99_scanf(i8*, ...) #1

declare dso_local i32 @printf(i8*, ...) #1


!llvm.module.flags = !{!0}
!llvm.ident = !{!1}

!0 = !{i32 1, !"wchar_size", i32 4}
!1 = !{!"clang version 10.0.0-4ubuntu1 "}
